target datalayout = "e-m:e-p270:32:32-p271:32:32-p272:64:64-i64:64-f80:128-n8:16:32:64-S128"
target triple = "x86_64-pc-linux-gnu"

@.str = private unnamed_addr constant [5 x i8] c"%d%s\00", align 1
@.str.1 = private unnamed_addr constant [4 x i8] c"NO\0A\00", align 1
@.str.2 = private unnamed_addr constant [4 x i8] c"%d\0A\00", align 1
@.str.3 = private unnamed_addr constant [4 x i8] c"%s\0A\00", align 1

; Function Attrs: noinline nounwind uwtable
define dso_local void @main() #0 {
  %1 = alloca [500 x i8], align 16
  %2 = alloca [500 x [6 x i8]], align 16
  %3 = alloca i32, align 4
  %4 = alloca i32, align 4
  %5 = alloca [500 x i32], align 16
  %6 = alloca i32, align 4
  %7 = alloca i32, align 4
  %8 = alloca i32, align 4
  %9 = getelementptr inbounds [500 x i8], [500 x i8]* %1, i64 0, i64 0
  %10 = call i32 (i8*, ...) @__isoc99_scanf(i8* getelementptr inbounds ([5 x i8], [5 x i8]* @.str, i64 0, i64 0), i32* %6, i8* %9)
  %11 = getelementptr inbounds [500 x i8], [500 x i8]* %1, i64 0, i64 0
  %12 = call i64 @strlen(i8* %11) #3
  %13 = trunc i64 %12 to i32
  store i32 %13, i32* %8, align 4
  store i32 0, i32* %3, align 4
  br label %14

14:                                               ; preds = %52, %0
  %15 = load i32, i32* %3, align 4
  %16 = load i32, i32* %8, align 4
  %17 = add nsw i32 %16, 1
  %18 = load i32, i32* %6, align 4
  %19 = sub nsw i32 %17, %18
  %20 = icmp slt i32 %15, %19
  br i1 %20, label %21, label %55

21:                                               ; preds = %14
  store i32 0, i32* %4, align 4
  br label %22

22:                                               ; preds = %39, %21
  %23 = load i32, i32* %4, align 4
  %24 = load i32, i32* %6, align 4
  %25 = icmp slt i32 %23, %24
  br i1 %25, label %26, label %42

26:                                               ; preds = %22
  %27 = load i32, i32* %3, align 4
  %28 = load i32, i32* %4, align 4
  %29 = add nsw i32 %27, %28
  %30 = sext i32 %29 to i64
  %31 = getelementptr inbounds [500 x i8], [500 x i8]* %1, i64 0, i64 %30
  %32 = load i8, i8* %31, align 1
  %33 = load i32, i32* %3, align 4
  %34 = sext i32 %33 to i64
  %35 = getelementptr inbounds [500 x [6 x i8]], [500 x [6 x i8]]* %2, i64 0, i64 %34
  %36 = load i32, i32* %4, align 4
  %37 = sext i32 %36 to i64
  %38 = getelementptr inbounds [6 x i8], [6 x i8]* %35, i64 0, i64 %37
  store i8 %32, i8* %38, align 1
  br label %39

39:                                               ; preds = %26
  %40 = load i32, i32* %4, align 4
  %41 = add nsw i32 %40, 1
  store i32 %41, i32* %4, align 4
  br label %22

42:                                               ; preds = %22
  %43 = load i32, i32* %3, align 4
  %44 = sext i32 %43 to i64
  %45 = getelementptr inbounds [500 x [6 x i8]], [500 x [6 x i8]]* %2, i64 0, i64 %44
  %46 = load i32, i32* %4, align 4
  %47 = sext i32 %46 to i64
  %48 = getelementptr inbounds [6 x i8], [6 x i8]* %45, i64 0, i64 %47
  store i8 0, i8* %48, align 1
  %49 = load i32, i32* %3, align 4
  %50 = sext i32 %49 to i64
  %51 = getelementptr inbounds [500 x i32], [500 x i32]* %5, i64 0, i64 %50
  store i32 1, i32* %51, align 4
  br label %52

52:                                               ; preds = %42
  %53 = load i32, i32* %3, align 4
  %54 = add nsw i32 %53, 1
  store i32 %54, i32* %3, align 4
  br label %14

55:                                               ; preds = %14
  store i32 0, i32* %3, align 4
  br label %56

56:                                               ; preds = %98, %55
  %57 = load i32, i32* %3, align 4
  %58 = load i32, i32* %8, align 4
  %59 = add nsw i32 %58, 1
  %60 = load i32, i32* %6, align 4
  %61 = sub nsw i32 %59, %60
  %62 = icmp slt i32 %57, %61
  br i1 %62, label %63, label %101

63:                                               ; preds = %56
  %64 = load i32, i32* %3, align 4
  %65 = add nsw i32 %64, 1
  store i32 %65, i32* %4, align 4
  br label %66

66:                                               ; preds = %94, %63
  %67 = load i32, i32* %4, align 4
  %68 = load i32, i32* %8, align 4
  %69 = add nsw i32 %68, 1
  %70 = load i32, i32* %6, align 4
  %71 = sub nsw i32 %69, %70
  %72 = icmp slt i32 %67, %71
  br i1 %72, label %73, label %97

73:                                               ; preds = %66
  %74 = load i32, i32* %3, align 4
  %75 = sext i32 %74 to i64
  %76 = getelementptr inbounds [500 x [6 x i8]], [500 x [6 x i8]]* %2, i64 0, i64 %75
  %77 = getelementptr inbounds [6 x i8], [6 x i8]* %76, i64 0, i64 0
  %78 = load i32, i32* %4, align 4
  %79 = sext i32 %78 to i64
  %80 = getelementptr inbounds [500 x [6 x i8]], [500 x [6 x i8]]* %2, i64 0, i64 %79
  %81 = getelementptr inbounds [6 x i8], [6 x i8]* %80, i64 0, i64 0
  %82 = call i32 @strcmp(i8* %77, i8* %81) #3
  %83 = icmp eq i32 %82, 0
  br i1 %83, label %84, label %93

84:                                               ; preds = %73
  %85 = load i32, i32* %3, align 4
  %86 = sext i32 %85 to i64
  %87 = getelementptr inbounds [500 x i32], [500 x i32]* %5, i64 0, i64 %86
  %88 = load i32, i32* %87, align 4
  %89 = add nsw i32 %88, 1
  %90 = load i32, i32* %3, align 4
  %91 = sext i32 %90 to i64
  %92 = getelementptr inbounds [500 x i32], [500 x i32]* %5, i64 0, i64 %91
  store i32 %89, i32* %92, align 4
  br label %93

93:                                               ; preds = %84, %73
  br label %94

94:                                               ; preds = %93
  %95 = load i32, i32* %4, align 4
  %96 = add nsw i32 %95, 1
  store i32 %96, i32* %4, align 4
  br label %66

97:                                               ; preds = %66
  br label %98

98:                                               ; preds = %97
  %99 = load i32, i32* %3, align 4
  %100 = add nsw i32 %99, 1
  store i32 %100, i32* %3, align 4
  br label %56

101:                                              ; preds = %56
  %102 = getelementptr inbounds [500 x i32], [500 x i32]* %5, i64 0, i64 0
  %103 = load i32, i32* %102, align 16
  store i32 %103, i32* %7, align 4
  store i32 0, i32* %3, align 4
  br label %104

104:                                              ; preds = %124, %101
  %105 = load i32, i32* %3, align 4
  %106 = load i32, i32* %8, align 4
  %107 = add nsw i32 %106, 1
  %108 = load i32, i32* %6, align 4
  %109 = sub nsw i32 %107, %108
  %110 = icmp slt i32 %105, %109
  br i1 %110, label %111, label %127

111:                                              ; preds = %104
  %112 = load i32, i32* %3, align 4
  %113 = sext i32 %112 to i64
  %114 = getelementptr inbounds [500 x i32], [500 x i32]* %5, i64 0, i64 %113
  %115 = load i32, i32* %114, align 4
  %116 = load i32, i32* %7, align 4
  %117 = icmp sge i32 %115, %116
  br i1 %117, label %118, label %123

118:                                              ; preds = %111
  %119 = load i32, i32* %3, align 4
  %120 = sext i32 %119 to i64
  %121 = getelementptr inbounds [500 x i32], [500 x i32]* %5, i64 0, i64 %120
  %122 = load i32, i32* %121, align 4
  store i32 %122, i32* %7, align 4
  br label %123

123:                                              ; preds = %118, %111
  br label %124

124:                                              ; preds = %123
  %125 = load i32, i32* %3, align 4
  %126 = add nsw i32 %125, 1
  store i32 %126, i32* %3, align 4
  br label %104

127:                                              ; preds = %104
  %128 = load i32, i32* %7, align 4
  %129 = icmp eq i32 %128, 1
  br i1 %129, label %130, label %132

130:                                              ; preds = %127
  %131 = call i32 (i8*, ...) @printf(i8* getelementptr inbounds ([4 x i8], [4 x i8]* @.str.1, i64 0, i64 0))
  br label %160

132:                                              ; preds = %127
  %133 = load i32, i32* %7, align 4
  %134 = call i32 (i8*, ...) @printf(i8* getelementptr inbounds ([4 x i8], [4 x i8]* @.str.2, i64 0, i64 0), i32 %133)
  store i32 0, i32* %3, align 4
  br label %135

135:                                              ; preds = %156, %132
  %136 = load i32, i32* %3, align 4
  %137 = load i32, i32* %8, align 4
  %138 = add nsw i32 %137, 1
  %139 = load i32, i32* %6, align 4
  %140 = sub nsw i32 %138, %139
  %141 = icmp slt i32 %136, %140
  br i1 %141, label %142, label %159

142:                                              ; preds = %135
  %143 = load i32, i32* %3, align 4
  %144 = sext i32 %143 to i64
  %145 = getelementptr inbounds [500 x i32], [500 x i32]* %5, i64 0, i64 %144
  %146 = load i32, i32* %145, align 4
  %147 = load i32, i32* %7, align 4
  %148 = icmp eq i32 %146, %147
  br i1 %148, label %149, label %155

149:                                              ; preds = %142
  %150 = load i32, i32* %3, align 4
  %151 = sext i32 %150 to i64
  %152 = getelementptr inbounds [500 x [6 x i8]], [500 x [6 x i8]]* %2, i64 0, i64 %151
  %153 = getelementptr inbounds [6 x i8], [6 x i8]* %152, i64 0, i64 0
  %154 = call i32 (i8*, ...) @printf(i8* getelementptr inbounds ([4 x i8], [4 x i8]* @.str.3, i64 0, i64 0), i8* %153)
  br label %155

155:                                              ; preds = %149, %142
  br label %156

156:                                              ; preds = %155
  %157 = load i32, i32* %3, align 4
  %158 = add nsw i32 %157, 1
  store i32 %158, i32* %3, align 4
  br label %135

159:                                              ; preds = %135
  br label %160

160:                                              ; preds = %159, %130
  ret void
}